target datalayout = "e-m:e-p270:32:32-p271:32:32-p272:64:64-i64:64-i128:128-f80:128-n8:16:32:64-S128"
target triple = "x86_64-pc-linux-gnu"

%struct.x509_attributes_st = type { ptr, i32, %union.anon }
%union.anon = type { ptr }
%struct.asn1_type_st = type { i32, %union.anon.0 }
%union.anon.0 = type { ptr }

@.str = private unnamed_addr constant [126 x i8] c"generated/home/dtcxzyw/WorkSpace/Projects/compilers/llvm-opt-benchmark/bench/libquic/libquic/boringssl/crypto/x509/x509_att.c\00", align 1

; Function Attrs: nounwind uwtable
define hidden ptr @X509_ATTRIBUTE_get0_type(ptr noundef %0, i32 noundef %1) #0 {
  %3 = alloca ptr, align 8
  %4 = alloca ptr, align 8
  %5 = alloca i32, align 4
  store ptr %0, ptr %4, align 8, !tbaa !15
  store i32 %1, ptr %5, align 4, !tbaa !11
  %6 = load ptr, ptr %4, align 8, !tbaa !15
  %7 = icmp eq ptr %6, null
  br i1 %7, label %8, label %9

8:                                                ; preds = %2
  store ptr null, ptr %3, align 8
  br label %31

9:                                                ; preds = %2
  %10 = load i32, ptr %5, align 4, !tbaa !11
  %11 = load ptr, ptr %4, align 8, !tbaa !15
  %12 = call i32 @X509_ATTRIBUTE_count(ptr noundef %11)
  %13 = icmp sge i32 %10, %12
  br i1 %13, label %14, label %15

14:                                               ; preds = %9
  store ptr null, ptr %3, align 8
  br label %31

15:                                               ; preds = %9
  %16 = load ptr, ptr %4, align 8, !tbaa !15
  %17 = getelementptr inbounds nuw %struct.x509_attributes_st, ptr %16, i32 0, i32 1
  %18 = load i32, ptr %17, align 8, !tbaa !28
  %19 = icmp ne i32 %18, 0
  br i1 %19, label %27, label %20

20:                                               ; preds = %15
  %21 = load ptr, ptr %4, align 8, !tbaa !15
  %22 = getelementptr inbounds nuw %struct.x509_attributes_st, ptr %21, i32 0, i32 2
  %23 = load ptr, ptr %22, align 8, !tbaa !29
  %24 = load i32, ptr %5, align 4, !tbaa !11
  %25 = sext i32 %24 to i64
  %26 = call ptr @sk_value(ptr noundef %23, i64 noundef %25)
  store ptr %26, ptr %3, align 8
  br label %31

27:                                               ; preds = %15
  %28 = load ptr, ptr %4, align 8, !tbaa !15
  %29 = getelementptr inbounds nuw %struct.x509_attributes_st, ptr %28, i32 0, i32 2
  %30 = load ptr, ptr %29, align 8, !tbaa !29
  store ptr %30, ptr %3, align 8
  br label %31

31:                                               ; preds = %27, %20, %14, %8
  %32 = load ptr, ptr %3, align 8
  ret ptr %32
}

; Function Attrs: nounwind uwtable
define hidden ptr @X509_ATTRIBUTE_get0_data(ptr noundef %0, i32 noundef %1, i32 noundef %2, ptr noundef %3) #0 {
  %5 = alloca ptr, align 8
  %6 = alloca ptr, align 8
  %7 = alloca i32, align 4
  %8 = alloca i32, align 4
  %9 = alloca ptr, align 8
  %10 = alloca ptr, align 8
  %11 = alloca i32, align 4
  store ptr %0, ptr %6, align 8, !tbaa !15
  store i32 %1, ptr %7, align 4, !tbaa !11
  store i32 %2, ptr %8, align 4, !tbaa !11
  store ptr %3, ptr %9, align 8, !tbaa !27
  call void @llvm.lifetime.start.p0(i64 8, ptr %10) #3
  %12 = load ptr, ptr %6, align 8, !tbaa !15
  %13 = load i32, ptr %7, align 4, !tbaa !11
  %14 = call ptr @X509_ATTRIBUTE_get0_type(ptr noundef %12, i32 noundef %13)
  store ptr %14, ptr %10, align 8, !tbaa !30
  %15 = load ptr, ptr %10, align 8, !tbaa !30
  %16 = icmp ne ptr %15, null
  br i1 %16, label %18, label %17

17:                                               ; preds = %4
  store ptr null, ptr %5, align 8
  store i32 1, ptr %11, align 4
  br label %28

18:                                               ; preds = %4
  %19 = load i32, ptr %8, align 4, !tbaa !11
  %20 = load ptr, ptr %10, align 8, !tbaa !30
  %21 = call i32 @ASN1_TYPE_get(ptr noundef %20)
  %22 = icmp ne i32 %19, %21
  br i1 %22, label %23, label %24

23:                                               ; preds = %18
  call void @ERR_put_error(i32 noundef 11, i32 noundef 0, i32 noundef 134, ptr noundef @.str, i32 noundef 359)
  store ptr null, ptr %5, align 8
  store i32 1, ptr %11, align 4
  br label %28

24:                                               ; preds = %18
  %25 = load ptr, ptr %10, align 8, !tbaa !30
  %26 = getelementptr inbounds nuw %struct.asn1_type_st, ptr %25, i32 0, i32 1
  %27 = load ptr, ptr %26, align 8, !tbaa !29
  store ptr %27, ptr %5, align 8
  store i32 1, ptr %11, align 4
  br label %28

28:                                               ; preds = %24, %23, %17
  call void @llvm.lifetime.end.p0(i64 8, ptr %10) #3
  %29 = load ptr, ptr %5, align 8
  ret ptr %29
}

; Function Attrs: nounwind uwtable
define hidden i32 @X509_ATTRIBUTE_count(ptr noundef %0) #0 {
  %2 = alloca i32, align 4
  %3 = alloca ptr, align 8
  store ptr %0, ptr %3, align 8, !tbaa !15
  %4 = load ptr, ptr %3, align 8, !tbaa !15
  %5 = getelementptr inbounds nuw %struct.x509_attributes_st, ptr %4, i32 0, i32 1
  %6 = load i32, ptr %5, align 8, !tbaa !28
  %7 = icmp ne i32 %6, 0
  br i1 %7, label %14, label %8

8:                                                ; preds = %1
  %9 = load ptr, ptr %3, align 8, !tbaa !15
  %10 = getelementptr inbounds nuw %struct.x509_attributes_st, ptr %9, i32 0, i32 2
  %11 = load ptr, ptr %10, align 8, !tbaa !29
  %12 = call i64 @sk_num(ptr noundef %11)
  %13 = trunc i64 %12 to i32
  store i32 %13, ptr %2, align 4
  br label %21

14:                                               ; preds = %1
  %15 = load ptr, ptr %3, align 8, !tbaa !15
  %16 = getelementptr inbounds nuw %struct.x509_attributes_st, ptr %15, i32 0, i32 2
  %17 = load ptr, ptr %16, align 8, !tbaa !29
  %18 = icmp ne ptr %17, null
  br i1 %18, label %19, label %20

19:                                               ; preds = %14
  store i32 1, ptr %2, align 4
  br label %21

20:                                               ; preds = %14
  store i32 0, ptr %2, align 4
  br label %21

21:                                               ; preds = %20, %19, %8
  %22 = load i32, ptr %2, align 4
  ret i32 %22
}

; Function Attrs: nounwind uwtable
define hidden ptr @X509at_get_attr(ptr noundef %0, i32 noundef %1) #0 {
  %3 = alloca ptr, align 8
  %4 = alloca ptr, align 8
  %5 = alloca i32, align 4
  store ptr %0, ptr %4, align 8, !tbaa !6
  store i32 %1, ptr %5, align 4, !tbaa !11
  %6 = load ptr, ptr %4, align 8, !tbaa !6
  %7 = icmp eq ptr %6, null
  br i1 %7, label %17, label %8

8:                                                ; preds = %2
  %9 = load i32, ptr %5, align 4, !tbaa !11
  %10 = icmp slt i32 %9, 0
  br i1 %10, label %17, label %11

11:                                               ; preds = %8
  %12 = load ptr, ptr %4, align 8, !tbaa !6
  %13 = call i64 @sk_num(ptr noundef %12)
  %14 = load i32, ptr %5, align 4, !tbaa !11
  %15 = sext i32 %14 to i64
  %16 = icmp ule i64 %13, %15
  br i1 %16, label %17, label %18

17:                                               ; preds = %11, %8, %2
  store ptr null, ptr %3, align 8
  br label %23

18:                                               ; preds = %11
  %19 = load ptr, ptr %4, align 8, !tbaa !6
  %20 = load i32, ptr %5, align 4, !tbaa !11
  %21 = sext i32 %20 to i64
  %22 = call ptr @sk_value(ptr noundef %19, i64 noundef %21)
  store ptr %22, ptr %3, align 8
  br label %23

23:                                               ; preds = %18, %17
  %24 = load ptr, ptr %3, align 8
  ret ptr %24
}

; Function Attrs: nounwind uwtable
define hidden i32 @X509at_get_attr_by_OBJ(ptr noundef %0, ptr noundef %1, i32 noundef %2) #0 {
  %4 = alloca i32, align 4
  %5 = alloca ptr, align 8
  %6 = alloca ptr, align 8
  %7 = alloca i32, align 4
  %8 = alloca i32, align 4
  %9 = alloca ptr, align 8
  %10 = alloca i32, align 4
  store ptr %0, ptr %5, align 8, !tbaa !6
  store ptr %1, ptr %6, align 8, !tbaa !13
  store i32 %2, ptr %7, align 4, !tbaa !11
  call void @llvm.lifetime.start.p0(i64 4, ptr %8) #3
  call void @llvm.lifetime.start.p0(i64 8, ptr %9) #3
  %11 = load ptr, ptr %5, align 8, !tbaa !6
  %12 = icmp eq ptr %11, null
  br i1 %12, label %13, label %14

13:                                               ; preds = %3
  store i32 -1, ptr %4, align 4
  store i32 1, ptr %10, align 4
  br label %46

14:                                               ; preds = %3
  %15 = load i32, ptr %7, align 4, !tbaa !11
  %16 = add nsw i32 %15, 1
  store i32 %16, ptr %7, align 4, !tbaa !11
  %17 = load i32, ptr %7, align 4, !tbaa !11
  %18 = icmp slt i32 %17, 0
  br i1 %18, label %19, label %20

19:                                               ; preds = %14
  store i32 0, ptr %7, align 4, !tbaa !11
  br label %20

20:                                               ; preds = %19, %14
  %21 = load ptr, ptr %5, align 8, !tbaa !6
  %22 = call i64 @sk_num(ptr noundef %21)
  %23 = trunc i64 %22 to i32
  store i32 %23, ptr %8, align 4, !tbaa !11
  br label %24

24:                                               ; preds = %42, %20
  %25 = load i32, ptr %7, align 4, !tbaa !11
  %26 = load i32, ptr %8, align 4, !tbaa !11
  %27 = icmp slt i32 %25, %26
  br i1 %27, label %28, label %45

28:                                               ; preds = %24
  %29 = load ptr, ptr %5, align 8, !tbaa !6
  %30 = load i32, ptr %7, align 4, !tbaa !11
  %31 = sext i32 %30 to i64
  %32 = call ptr @sk_value(ptr noundef %29, i64 noundef %31)
  store ptr %32, ptr %9, align 8, !tbaa !15
  %33 = load ptr, ptr %9, align 8, !tbaa !15
  %34 = getelementptr inbounds nuw %struct.x509_attributes_st, ptr %33, i32 0, i32 0
  %35 = load ptr, ptr %34, align 8, !tbaa !17
  %36 = load ptr, ptr %6, align 8, !tbaa !13
  %37 = call i32 @OBJ_cmp(ptr noundef %35, ptr noundef %36)
  %38 = icmp eq i32 %37, 0
  br i1 %38, label %39, label %41

39:                                               ; preds = %28
  %40 = load i32, ptr %7, align 4, !tbaa !11
  store i32 %40, ptr %4, align 4
  store i32 1, ptr %10, align 4
  br label %46

41:                                               ; preds = %28
  br label %42

42:                                               ; preds = %41
  %43 = load i32, ptr %7, align 4, !tbaa !11
  %44 = add nsw i32 %43, 1
  store i32 %44, ptr %7, align 4, !tbaa !11
  br label %24, !llvm.loop !19

45:                                               ; preds = %24
  store i32 -1, ptr %4, align 4
  store i32 1, ptr %10, align 4
  br label %46

46:                                               ; preds = %45, %39, %13
  call void @llvm.lifetime.end.p0(i64 8, ptr %9) #3
  call void @llvm.lifetime.end.p0(i64 4, ptr %8) #3
  %47 = load i32, ptr %4, align 4
  ret i32 %47
}

; Function Attrs: nounwind uwtable
define hidden ptr @X509at_get0_data_by_OBJ(ptr noundef %0, ptr noundef %1, i32 noundef %2, i32 noundef %3) #0 {
  %5 = alloca ptr, align 8
  %6 = alloca ptr, align 8
  %7 = alloca ptr, align 8
  %8 = alloca i32, align 4
  %9 = alloca i32, align 4
  %10 = alloca i32, align 4
  %11 = alloca ptr, align 8
  %12 = alloca i32, align 4
  store ptr %0, ptr %6, align 8, !tbaa !6
  store ptr %1, ptr %7, align 8, !tbaa !13
  store i32 %2, ptr %8, align 4, !tbaa !11
  store i32 %3, ptr %9, align 4, !tbaa !11
  call void @llvm.lifetime.start.p0(i64 4, ptr %10) #3
  call void @llvm.lifetime.start.p0(i64 8, ptr %11) #3
  %13 = load ptr, ptr %6, align 8, !tbaa !6
  %14 = load ptr, ptr %7, align 8, !tbaa !13
  %15 = load i32, ptr %8, align 4, !tbaa !11
  %16 = call i32 @X509at_get_attr_by_OBJ(ptr noundef %13, ptr noundef %14, i32 noundef %15)
  store i32 %16, ptr %10, align 4, !tbaa !11
  %17 = load i32, ptr %10, align 4, !tbaa !11
  %18 = icmp eq i32 %17, -1
  br i1 %18, label %19, label %20

19:                                               ; preds = %4
  store ptr null, ptr %5, align 8
  store i32 1, ptr %12, align 4
  br label %45

20:                                               ; preds = %4
  %21 = load i32, ptr %8, align 4, !tbaa !11
  %22 = icmp sle i32 %21, -2
  br i1 %22, label %23, label %30

23:                                               ; preds = %20
  %24 = load ptr, ptr %6, align 8, !tbaa !6
  %25 = load ptr, ptr %7, align 8, !tbaa !13
  %26 = load i32, ptr %10, align 4, !tbaa !11
  %27 = call i32 @X509at_get_attr_by_OBJ(ptr noundef %24, ptr noundef %25, i32 noundef %26)
  %28 = icmp ne i32 %27, -1
  br i1 %28, label %29, label %30

29:                                               ; preds = %23
  store ptr null, ptr %5, align 8
  store i32 1, ptr %12, align 4
  br label %45

30:                                               ; preds = %23, %20
  %31 = load ptr, ptr %6, align 8, !tbaa !6
  %32 = load i32, ptr %10, align 4, !tbaa !11
  %33 = call ptr @X509at_get_attr(ptr noundef %31, i32 noundef %32)
  store ptr %33, ptr %11, align 8, !tbaa !15
  %34 = load i32, ptr %8, align 4, !tbaa !11
  %35 = icmp sle i32 %34, -3
  br i1 %35, label %36, label %41

36:                                               ; preds = %30
  %37 = load ptr, ptr %11, align 8, !tbaa !15
  %38 = call i32 @X509_ATTRIBUTE_count(ptr noundef %37)
  %39 = icmp ne i32 %38, 1
  br i1 %39, label %40, label %41

40:                                               ; preds = %36
  store ptr null, ptr %5, align 8
  store i32 1, ptr %12, align 4
  br label %45

41:                                               ; preds = %36, %30
  %42 = load ptr, ptr %11, align 8, !tbaa !15
  %43 = load i32, ptr %9, align 4, !tbaa !11
  %44 = call ptr @X509_ATTRIBUTE_get0_data(ptr noundef %42, i32 noundef 0, i32 noundef %43, ptr noundef null)
  store ptr %44, ptr %5, align 8
  store i32 1, ptr %12, align 4
  br label %45

45:                                               ; preds = %41, %40, %29, %19
  call void @llvm.lifetime.end.p0(i64 8, ptr %11) #3
  call void @llvm.lifetime.end.p0(i64 4, ptr %10) #3
  %46 = load ptr, ptr %5, align 8
  ret ptr %46
}