; Function Attrs: nounwind uwtable
define hidden ptr @X509at_get0_data_by_OBJ(ptr noundef %0, ptr noundef %1, i32 noundef %2, i32 noundef %3) local_unnamed_addr #0 {
  %5 = icmp eq ptr %0, null
  br i1 %5, label %X509_ATTRIBUTE_get0_data.exit, label %6

6:                                                ; preds = %4
  %7 = tail call i64 @sk_num(ptr noundef nonnull %0) #4
  %8 = tail call i32 @llvm.smax.i32(i32 %2, i32 -1)
  %smax.i = sext i32 %8 to i64
  %sext.i = shl i64 %7, 32
  %9 = ashr exact i64 %sext.i, 32
  br label %10

10:                                               ; preds = %12, %6
  %indvars.iv.i = phi i64 [ %indvars.iv.next.i, %12 ], [ %smax.i, %6 ]
  %indvars.iv.next.i = add nsw i64 %indvars.iv.i, 1
  %11 = icmp slt i64 %indvars.iv.next.i, %9
  br i1 %11, label %12, label %X509_ATTRIBUTE_get0_data.exit

12:                                               ; preds = %10
  %13 = tail call ptr @sk_value(ptr noundef nonnull %0, i64 noundef %indvars.iv.next.i) #4
  %14 = load ptr, ptr %13, align 8, !tbaa !6
  %15 = tail call i32 @OBJ_cmp(ptr noundef %14, ptr noundef %1) #4
  %16 = icmp eq i32 %15, 0
  br i1 %16, label %X509at_get_attr_by_OBJ.exit, label %10, !llvm.loop !13

X509at_get_attr_by_OBJ.exit:                      ; preds = %12
  %17 = trunc nsw i64 %indvars.iv.next.i to i32
  %18 = icmp eq i64 %indvars.iv.next.i, -1
  br i1 %18, label %X509_ATTRIBUTE_get0_data.exit, label %19

19:                                               ; preds = %X509at_get_attr_by_OBJ.exit
  %20 = icmp slt i32 %2, -1
  br i1 %20, label %21, label %X509at_get_attr_by_OBJ.exit22.thread

21:                                               ; preds = %19
  %22 = tail call i64 @sk_num(ptr noundef nonnull %0) #4
  %23 = tail call i32 @llvm.smax.i32(i32 %17, i32 -1)
  %smax.i16 = sext i32 %23 to i64
  %sext.i17 = shl i64 %22, 32
  %24 = ashr exact i64 %sext.i17, 32
  br label %25

25:                                               ; preds = %27, %21
  %indvars.iv.i18 = phi i64 [ %indvars.iv.next.i19, %27 ], [ %smax.i16, %21 ]
  %indvars.iv.next.i19 = add nsw i64 %indvars.iv.i18, 1
  %26 = icmp slt i64 %indvars.iv.next.i19, %24
  br i1 %26, label %27, label %X509at_get_attr_by_OBJ.exit22.thread

27:                                               ; preds = %25
  %28 = tail call ptr @sk_value(ptr noundef nonnull %0, i64 noundef %indvars.iv.next.i19) #4
  %29 = load ptr, ptr %28, align 8, !tbaa !6
  %30 = tail call i32 @OBJ_cmp(ptr noundef %29, ptr noundef %1) #4
  %31 = icmp eq i32 %30, 0
  br i1 %31, label %X509at_get_attr_by_OBJ.exit22, label %25, !llvm.loop !13

X509at_get_attr_by_OBJ.exit22:                    ; preds = %27
  %.not = icmp eq i64 %indvars.iv.next.i19, -1
  br i1 %.not, label %X509at_get_attr_by_OBJ.exit22.thread, label %X509_ATTRIBUTE_get0_data.exit

X509at_get_attr_by_OBJ.exit22.thread:             ; preds = %25, %X509at_get_attr_by_OBJ.exit22, %19
  %32 = icmp slt i64 %indvars.iv.i, -1
  br i1 %32, label %X509at_get_attr.exit, label %33

33:                                               ; preds = %X509at_get_attr_by_OBJ.exit22.thread
  %34 = tail call i64 @sk_num(ptr noundef nonnull %0) #4
  %35 = and i64 %indvars.iv.next.i, 4294967295
  %.not.i = icmp ugt i64 %34, %35
  br i1 %.not.i, label %36, label %X509at_get_attr.exit

36:                                               ; preds = %33
  %37 = tail call ptr @sk_value(ptr noundef nonnull %0, i64 noundef %35) #4
  br label %X509at_get_attr.exit

X509at_get_attr.exit:                             ; preds = %X509at_get_attr_by_OBJ.exit22.thread, %33, %36
  %.0.i23 = phi ptr [ %37, %36 ], [ null, %33 ], [ null, %X509at_get_attr_by_OBJ.exit22.thread ]
  %38 = icmp slt i32 %2, -2
  br i1 %38, label %39, label %48

39:                                               ; preds = %X509at_get_attr.exit
  %40 = getelementptr inbounds nuw i8, ptr %.0.i23, i64 8
  %41 = load i32, ptr %40, align 8, !tbaa !19
  %.not.i24 = icmp eq i32 %41, 0
  %42 = getelementptr inbounds nuw i8, ptr %.0.i23, i64 16
  %43 = load ptr, ptr %42, align 8, !tbaa !20
  br i1 %.not.i24, label %44, label %X509_ATTRIBUTE_count.exit

44:                                               ; preds = %39
  %45 = tail call i64 @sk_num(ptr noundef %43) #4
  %46 = and i64 %45, 4294967295
  %47 = icmp eq i64 %46, 1
  br i1 %47, label %.thread, label %X509_ATTRIBUTE_get0_data.exit

X509_ATTRIBUTE_count.exit:                        ; preds = %39
  %.not3.i.not = icmp eq ptr %43, null
  br i1 %.not3.i.not, label %X509_ATTRIBUTE_get0_data.exit, label %.thread

48:                                               ; preds = %X509at_get_attr.exit
  %49 = icmp eq ptr %.0.i23, null
  br i1 %49, label %X509_ATTRIBUTE_get0_data.exit, label %.thread

.thread:                                          ; preds = %44, %X509_ATTRIBUTE_count.exit, %48
  %50 = getelementptr inbounds nuw i8, ptr %.0.i23, i64 8
  %51 = load i32, ptr %50, align 8, !tbaa !19
  %.not.i.i.i = icmp eq i32 %51, 0
  %52 = getelementptr inbounds nuw i8, ptr %.0.i23, i64 16
  %53 = load ptr, ptr %52, align 8, !tbaa !20
  br i1 %.not.i.i.i, label %54, label %X509_ATTRIBUTE_count.exit.i.i

54:                                               ; preds = %.thread
  %55 = tail call i64 @sk_num(ptr noundef %53) #4
  %56 = trunc i64 %55 to i32
  %57 = icmp sgt i32 %56, 0
  br i1 %57, label %58, label %X509_ATTRIBUTE_get0_data.exit

X509_ATTRIBUTE_count.exit.i.i:                    ; preds = %.thread
  %.not3.i.i.i.not = icmp eq ptr %53, null
  br i1 %.not3.i.i.i.not, label %X509_ATTRIBUTE_get0_data.exit, label %58

58:                                               ; preds = %54, %X509_ATTRIBUTE_count.exit.i.i
  %59 = load i32, ptr %50, align 8, !tbaa !19
  %.not9.i.i = icmp eq i32 %59, 0
  %60 = load ptr, ptr %52, align 8, !tbaa !20
  br i1 %.not9.i.i, label %61, label %X509_ATTRIBUTE_get0_type.exit.i

61:                                               ; preds = %58
  %62 = tail call ptr @sk_value(ptr noundef %60, i64 noundef 0) #4
  br label %X509_ATTRIBUTE_get0_type.exit.i

X509_ATTRIBUTE_get0_type.exit.i:                  ; preds = %61, %58
  %.0.i.i = phi ptr [ %62, %61 ], [ %60, %58 ]
  %.not.i27 = icmp eq ptr %.0.i.i, null
  br i1 %.not.i27, label %X509_ATTRIBUTE_get0_data.exit, label %63

63:                                               ; preds = %X509_ATTRIBUTE_get0_type.exit.i
  %64 = tail call i32 @ASN1_TYPE_get(ptr noundef nonnull %.0.i.i) #4
  %.not7.i = icmp eq i32 %3, %64
  br i1 %.not7.i, label %66, label %65

65:                                               ; preds = %63
  tail call void @ERR_put_error(i32 noundef 11, i32 noundef 0, i32 noundef 134, ptr noundef nonnull @.str, i32 noundef 359) #4
  br label %X509_ATTRIBUTE_get0_data.exit

66:                                               ; preds = %63
  %67 = getelementptr inbounds nuw i8, ptr %.0.i.i, i64 8
  %68 = load ptr, ptr %67, align 8, !tbaa !20
  br label %X509_ATTRIBUTE_get0_data.exit

X509_ATTRIBUTE_get0_data.exit:                    ; preds = %10, %54, %44, %4, %66, %65, %X509_ATTRIBUTE_get0_type.exit.i, %X509_ATTRIBUTE_count.exit.i.i, %48, %X509_ATTRIBUTE_count.exit, %X509at_get_attr_by_OBJ.exit22, %X509at_get_attr_by_OBJ.exit
  %.0 = phi ptr [ null, %X509at_get_attr_by_OBJ.exit ], [ null, %X509at_get_attr_by_OBJ.exit22 ], [ null, %X509_ATTRIBUTE_count.exit ], [ null, %65 ], [ %68, %66 ], [ null, %X509_ATTRIBUTE_get0_type.exit.i ], [ null, %48 ], [ null, %X509_ATTRIBUTE_count.exit.i.i ], [ null, %4 ], [ null, %44 ], [ null, %54 ], [ null, %10 ]
  ret ptr %.0
}